; ModuleID = '33/2429.c'
source_filename = "33/2429.c"
target datalayout = "e-m:e-p270:32:32-p271:32:32-p272:64:64-i64:64-f80:128-n8:16:32:64-S128"
target triple = "x86_64-pc-linux-gnu"

@.str = private unnamed_addr constant [3 x i8] c"%d\00", align 1
@.str.1 = private unnamed_addr constant [3 x i8] c"%s\00", align 1
@.str.2 = private unnamed_addr constant [4 x i8] c"%s\0A\00", align 1

; Function Attrs: noinline nounwind uwtable
define dso_local i32 @main() #0 {
  %1 = alloca i32, align 4
  %2 = alloca [1000 x [256 x i8]], align 16
  %3 = alloca [1000 x [256 x i8]], align 16
  %4 = alloca i32, align 4
  %5 = alloca i32, align 4
  %6 = alloca i32, align 4
  %7 = alloca [1000 x i32], align 16
  store i32 0, i32* %1, align 4
  %8 = call i32 (i8*, ...) @__isoc99_scanf(i8* getelementptr inbounds ([3 x i8], [3 x i8]* @.str, i64 0, i64 0), i32* %6)
  store i32 0, i32* %5, align 4
  br label %9

9:                                                ; preds = %27, %0
  %10 = load i32, i32* %5, align 4
  %11 = load i32, i32* %6, align 4
  %12 = icmp slt i32 %10, %11
  br i1 %12, label %13, label %30

13:                                               ; preds = %9
  %14 = load i32, i32* %5, align 4
  %15 = sext i32 %14 to i64
  %16 = getelementptr inbounds [1000 x [256 x i8]], [1000 x [256 x i8]]* %2, i64 0, i64 %15
  %17 = call i32 (i8*, ...) @__isoc99_scanf(i8* getelementptr inbounds ([3 x i8], [3 x i8]* @.str.1, i64 0, i64 0), [256 x i8]* %16)
  %18 = load i32, i32* %5, align 4
  %19 = sext i32 %18 to i64
  %20 = getelementptr inbounds [1000 x [256 x i8]], [1000 x [256 x i8]]* %2, i64 0, i64 %19
  %21 = getelementptr inbounds [256 x i8], [256 x i8]* %20, i64 0, i64 0
  %22 = call i64 @strlen(i8* %21) #3
  %23 = trunc i64 %22 to i32
  %24 = load i32, i32* %5, align 4
  %25 = sext i32 %24 to i64
  %26 = getelementptr inbounds [1000 x i32], [1000 x i32]* %7, i64 0, i64 %25
  store i32 %23, i32* %26, align 4
  br label %27

27:                                               ; preds = %13
  %28 = load i32, i32* %5, align 4
  %29 = add nsw i32 %28, 1
  store i32 %29, i32* %5, align 4
  br label %9

30:                                               ; preds = %9
  store i32 0, i32* %5, align 4
  br label %31

31:                                               ; preds = %92, %30
  %32 = load i32, i32* %5, align 4
  %33 = load i32, i32* %6, align 4
  %34 = icmp slt i32 %32, %33
  br i1 %34, label %35, label %95

35:                                               ; preds = %31
  store i32 0, i32* %4, align 4
  br label %36

36:                                               ; preds = %82, %35
  %37 = load i32, i32* %4, align 4
  %38 = load i32, i32* %5, align 4
  %39 = sext i32 %38 to i64
  %40 = getelementptr inbounds [1000 x i32], [1000 x i32]* %7, i64 0, i64 %39
  %41 = load i32, i32* %40, align 4
  %42 = icmp slt i32 %37, %41
  br i1 %42, label %43, label %85

43:                                               ; preds = %36
  %44 = load i32, i32* %5, align 4
  %45 = sext i32 %44 to i64
  %46 = getelementptr inbounds [1000 x [256 x i8]], [1000 x [256 x i8]]* %2, i64 0, i64 %45
  %47 = load i32, i32* %4, align 4
  %48 = sext i32 %47 to i64
  %49 = getelementptr inbounds [256 x i8], [256 x i8]* %46, i64 0, i64 %48
  %50 = load i8, i8* %49, align 1
  %51 = sext i8 %50 to i32
  switch i32 %51, label %80 [
    i32 65, label %52
    i32 84, label %59
    i32 67, label %66
    i32 71, label %73
  ]

52:                                               ; preds = %43
  %53 = load i32, i32* %5, align 4
  %54 = sext i32 %53 to i64
  %55 = getelementptr inbounds [1000 x [256 x i8]], [1000 x [256 x i8]]* %3, i64 0, i64 %54
  %56 = load i32, i32* %4, align 4
  %57 = sext i32 %56 to i64
  %58 = getelementptr inbounds [256 x i8], [256 x i8]* %55, i64 0, i64 %57
  store i8 84, i8* %58, align 1
  br label %81

59:                                               ; preds = %43
  %60 = load i32, i32* %5, align 4
  %61 = sext i32 %60 to i64
  %62 = getelementptr inbounds [1000 x [256 x i8]], [1000 x [256 x i8]]* %3, i64 0, i64 %61
  %63 = load i32, i32* %4, align 4
  %64 = sext i32 %63 to i64
  %65 = getelementptr inbounds [256 x i8], [256 x i8]* %62, i64 0, i64 %64
  store i8 65, i8* %65, align 1
  br label %81

66:                                               ; preds = %43
  %67 = load i32, i32* %5, align 4
  %68 = sext i32 %67 to i64
  %69 = getelementptr inbounds [1000 x [256 x i8]], [1000 x [256 x i8]]* %3, i64 0, i64 %68
  %70 = load i32, i32* %4, align 4
  %71 = sext i32 %70 to i64
  %72 = getelementptr inbounds [256 x i8], [256 x i8]* %69, i64 0, i64 %71
  store i8 71, i8* %72, align 1
  br label %81

73:                                               ; preds = %43
  %74 = load i32, i32* %5, align 4
  %75 = sext i32 %74 to i64
  %76 = getelementptr inbounds [1000 x [256 x i8]], [1000 x [256 x i8]]* %3, i64 0, i64 %75
  %77 = load i32, i32* %4, align 4
  %78 = sext i32 %77 to i64
  %79 = getelementptr inbounds [256 x i8], [256 x i8]* %76, i64 0, i64 %78
  store i8 67, i8* %79, align 1
  br label %81

80:                                               ; preds = %43
  br label %81

81:                                               ; preds = %80, %73, %66, %59, %52
  br label %82

82:                                               ; preds = %81
  %83 = load i32, i32* %4, align 4
  %84 = add nsw i32 %83, 1
  store i32 %84, i32* %4, align 4
  br label %36

85:                                               ; preds = %36
  %86 = load i32, i32* %5, align 4
  %87 = sext i32 %86 to i64
  %88 = getelementptr inbounds [1000 x [256 x i8]], [1000 x [256 x i8]]* %3, i64 0, i64 %87
  %89 = load i32, i32* %4, align 4
  %90 = sext i32 %89 to i64
  %91 = getelementptr inbounds [256 x i8], [256 x i8]* %88, i64 0, i64 %90
  store i8 0, i8* %91, align 1
  br label %92

92:                                               ; preds = %85
  %93 = load i32, i32* %5, align 4
  %94 = add nsw i32 %93, 1
  store i32 %94, i32* %5, align 4
  br label %31

95:                                               ; preds = %31
  store i32 0, i32* %5, align 4
  br label %96

96:                                               ; preds = %106, %95
  %97 = load i32, i32* %5, align 4
  %98 = load i32, i32* %6, align 4
  %99 = icmp slt i32 %97, %98
  br i1 %99, label %100, label %109

100:                                              ; preds = %96
  %101 = load i32, i32* %5, align 4
  %102 = sext i32 %101 to i64
  %103 = getelementptr inbounds [1000 x [256 x i8]], [1000 x [256 x i8]]* %3, i64 0, i64 %102
  %104 = getelementptr inbounds [256 x i8], [256 x i8]* %103, i64 0, i64 0
  %105 = call i32 (i8*, ...) @printf(i8* getelementptr inbounds ([4 x i8], [4 x i8]* @.str.2, i64 0, i64 0), i8* %104)
  br label %106

106:                                              ; preds = %100
  %107 = load i32, i32* %5, align 4
  %108 = add nsw i32 %107, 1
  store i32 %108, i32* %5, align 4
  br label %96

109:                                              ; preds = %96
  ret i32 0
}

declare dso_local i32 @__isoc99_scanf(i8*, ...) #1

; Function Attrs: nounwind readonly
declare dso_local i64 @strlen(i8*) #2

declare dso_local i32 @printf(i8*, ...) #1


!llvm.module.flags = !{!0}
!llvm.ident = !{!1}

!0 = !{i32 1, !"wchar_size", i32 4}
!1 = !{!"clang version 10.0.0-4ubuntu1 "}
